; Function Attrs: mustprogress uwtable
define dso_local void @_ZN25cmGeneratedFileStreamBaseC2ERKNSt7__cxx1112basic_stringIcSt11char_traitsIcESaIcEEE(ptr noundef nonnull align 8 dereferenceable(100) %0, ptr noundef nonnull align 8 dereferenceable(32) %1) unnamed_addr #3 align 2 personality ptr @__gxx_personality_v0 {
  tail call void @_ZNSt7__cxx1112basic_stringIcSt11char_traitsIcESaIcEEC1Ev(ptr noundef nonnull align 8 dereferenceable(32) %0) #15
  %3 = getelementptr inbounds i8, ptr %0, i64 32
  tail call void @_ZNSt7__cxx1112basic_stringIcSt11char_traitsIcESaIcEEC1Ev(ptr noundef nonnull align 8 dereferenceable(32) %3) #15
  %4 = getelementptr inbounds i8, ptr %0, i64 64
  tail call void @_ZNSt7__cxx1112basic_stringIcSt11char_traitsIcESaIcEEC1Ev(ptr noundef nonnull align 8 dereferenceable(32) %4) #15
  %5 = getelementptr inbounds i8, ptr %0, i64 96
  store <4 x i8> <i8 0, i8 0, i8 0, i8 1>, ptr %5, align 8
  invoke void @_ZN25cmGeneratedFileStreamBase4OpenERKNSt7__cxx1112basic_stringIcSt11char_traitsIcESaIcEEE(ptr noundef nonnull align 8 dereferenceable(100) %0, ptr noundef nonnull align 8 dereferenceable(32) %1)
          to label %6 unwind label %7

6:                                                ; preds = %2
  ret void

7:                                                ; preds = %2
  %8 = landingpad { ptr, i32 }
          cleanup
  tail call void @_ZNSt7__cxx1112basic_stringIcSt11char_traitsIcESaIcEED1Ev(ptr noundef nonnull align 8 dereferenceable(32) %4) #15
  tail call void @_ZNSt7__cxx1112basic_stringIcSt11char_traitsIcESaIcEED1Ev(ptr noundef nonnull align 8 dereferenceable(32) %3) #15
  tail call void @_ZNSt7__cxx1112basic_stringIcSt11char_traitsIcESaIcEED1Ev(ptr noundef nonnull align 8 dereferenceable(32) %0) #15
  resume { ptr, i32 } %8
}